target datalayout = "e-m:e-p270:32:32-p271:32:32-p272:64:64-i64:64-i128:128-f80:128-n8:16:32:64-S128"
target triple = "x86_64-pc-linux-gnu"

%struct.TT_CMapRec_ = type { %struct.FT_CMapRec_, ptr, i32 }
%struct.FT_CMapRec_ = type { %struct.FT_CharMapRec_, ptr }
%struct.FT_CharMapRec_ = type { ptr, i32, i16, i16 }

; Function Attrs: nounwind uwtable
define internal ptr @tt_cmap2_get_subheader(ptr noundef %0, i32 noundef %1) #0 {
  %3 = alloca ptr, align 8
  %4 = alloca i32, align 4
  %5 = alloca ptr, align 8
  %6 = alloca i32, align 4
  %7 = alloca i32, align 4
  %8 = alloca ptr, align 8
  %9 = alloca ptr, align 8
  %10 = alloca ptr, align 8
  store ptr %0, ptr %3, align 8
  store i32 %1, ptr %4, align 4
  store ptr null, ptr %5, align 8
  %11 = load i32, ptr %4, align 4
  %12 = zext i32 %11 to i64
  %13 = icmp ult i64 %12, 65536
  br i1 %13, label %14, label %82

14:                                               ; preds = %2
  %15 = load i32, ptr %4, align 4
  %16 = and i32 %15, 255
  store i32 %16, ptr %6, align 4
  %17 = load i32, ptr %4, align 4
  %18 = lshr i32 %17, 8
  store i32 %18, ptr %7, align 4
  %19 = load ptr, ptr %3, align 8
  %20 = getelementptr inbounds i8, ptr %19, i64 6
  store ptr %20, ptr %8, align 8
  %21 = load ptr, ptr %3, align 8
  %22 = getelementptr inbounds i8, ptr %21, i64 518
  store ptr %22, ptr %9, align 8
  %23 = load i32, ptr %7, align 4
  %24 = icmp eq i32 %23, 0
  br i1 %24, label %25, label %50

25:                                               ; preds = %14
  %26 = load ptr, ptr %9, align 8
  store ptr %26, ptr %10, align 8
  %27 = load i32, ptr %6, align 4
  %28 = mul i32 %27, 2
  %29 = load ptr, ptr %8, align 8
  %30 = zext i32 %28 to i64
  %31 = getelementptr inbounds i8, ptr %29, i64 %30
  store ptr %31, ptr %8, align 8
  %32 = load ptr, ptr %8, align 8
  %33 = getelementptr inbounds i8, ptr %32, i64 0
  %34 = load i8, ptr %33, align 1
  %35 = zext i8 %34 to i16
  %36 = zext i16 %35 to i32
  %37 = shl i32 %36, 8
  %38 = load ptr, ptr %8, align 8
  %39 = getelementptr inbounds i8, ptr %38, i64 1
  %40 = load i8, ptr %39, align 1
  %41 = zext i8 %40 to i16
  %42 = zext i16 %41 to i32
  %43 = shl i32 %42, 0
  %44 = or i32 %37, %43
  %45 = trunc i32 %44 to i16
  %46 = zext i16 %45 to i32
  %47 = icmp ne i32 %46, 0
  br i1 %47, label %48, label %49

48:                                               ; preds = %25
  br label %83

49:                                               ; preds = %25
  br label %80

50:                                               ; preds = %14
  %51 = load i32, ptr %7, align 4
  %52 = mul i32 %51, 2
  %53 = load ptr, ptr %8, align 8
  %54 = zext i32 %52 to i64
  %55 = getelementptr inbounds i8, ptr %53, i64 %54
  store ptr %55, ptr %8, align 8
  %56 = load ptr, ptr %9, align 8
  %57 = load ptr, ptr %8, align 8
  %58 = getelementptr inbounds i8, ptr %57, i64 0
  %59 = load i8, ptr %58, align 1
  %60 = zext i8 %59 to i16
  %61 = zext i16 %60 to i32
  %62 = shl i32 %61, 8
  %63 = load ptr, ptr %8, align 8
  %64 = getelementptr inbounds i8, ptr %63, i64 1
  %65 = load i8, ptr %64, align 1
  %66 = zext i8 %65 to i16
  %67 = zext i16 %66 to i32
  %68 = shl i32 %67, 0
  %69 = or i32 %62, %68
  %70 = trunc i32 %69 to i16
  %71 = zext i16 %70 to i32
  %72 = and i32 %71, -8
  %73 = sext i32 %72 to i64
  %74 = getelementptr inbounds i8, ptr %56, i64 %73
  store ptr %74, ptr %10, align 8
  %75 = load ptr, ptr %10, align 8
  %76 = load ptr, ptr %9, align 8
  %77 = icmp eq ptr %75, %76
  br i1 %77, label %78, label %79

78:                                               ; preds = %50
  br label %83

79:                                               ; preds = %50
  br label %80

80:                                               ; preds = %79, %49
  %81 = load ptr, ptr %10, align 8
  store ptr %81, ptr %5, align 8
  br label %82

82:                                               ; preds = %80, %2
  br label %83

83:                                               ; preds = %82, %78, %48
  %84 = load ptr, ptr %5, align 8
  ret ptr %84
}

; Function Attrs: nounwind uwtable
define internal i32 @tt_cmap2_char_next(ptr noundef %0, ptr noundef %1) #0 {
  %3 = alloca ptr, align 8
  %4 = alloca ptr, align 8
  %5 = alloca ptr, align 8
  %6 = alloca ptr, align 8
  %7 = alloca i32, align 4
  %8 = alloca i32, align 4
  %9 = alloca i32, align 4
  %10 = alloca ptr, align 8
  %11 = alloca ptr, align 8
  %12 = alloca i32, align 4
  %13 = alloca i32, align 4
  %14 = alloca i32, align 4
  %15 = alloca i32, align 4
  %16 = alloca i32, align 4
  %17 = alloca i32, align 4
  %18 = alloca i32, align 4
  store ptr %0, ptr %3, align 8
  store ptr %1, ptr %4, align 8
  %19 = load ptr, ptr %3, align 8
  store ptr %19, ptr %5, align 8
  %20 = load ptr, ptr %5, align 8
  %21 = getelementptr inbounds %struct.TT_CMapRec_, ptr %20, i32 0, i32 1
  %22 = load ptr, ptr %21, align 8
  store ptr %22, ptr %6, align 8
  store i32 0, ptr %7, align 4
  store i32 0, ptr %8, align 4
  %23 = load ptr, ptr %4, align 8
  %24 = load i32, ptr %23, align 4
  %25 = add i32 %24, 1
  store i32 %25, ptr %9, align 4
  br label %26

26:                                               ; preds = %211, %120, %2
  %27 = load i32, ptr %9, align 4
  %28 = zext i32 %27 to i64
  %29 = icmp ult i64 %28, 65536
  br i1 %29, label %30, label %212

30:                                               ; preds = %26
  %31 = load ptr, ptr %6, align 8
  %32 = load i32, ptr %9, align 4
  %33 = call ptr @tt_cmap2_get_subheader(ptr noundef %31, i32 noundef %32)
  store ptr %33, ptr %10, align 8
  %34 = load ptr, ptr %10, align 8
  %35 = icmp ne ptr %34, null
  br i1 %35, label %36, label %200

36:                                               ; preds = %30
  %37 = load ptr, ptr %10, align 8
  store ptr %37, ptr %11, align 8
  %38 = load ptr, ptr %11, align 8
  %39 = getelementptr inbounds i8, ptr %38, i64 2
  store ptr %39, ptr %11, align 8
  %40 = load ptr, ptr %11, align 8
  %41 = getelementptr inbounds i8, ptr %40, i64 -2
  %42 = getelementptr inbounds i8, ptr %41, i64 0
  %43 = load i8, ptr %42, align 1
  %44 = zext i8 %43 to i16
  %45 = zext i16 %44 to i32
  %46 = shl i32 %45, 8
  %47 = load ptr, ptr %11, align 8
  %48 = getelementptr inbounds i8, ptr %47, i64 -2
  %49 = getelementptr inbounds i8, ptr %48, i64 1
  %50 = load i8, ptr %49, align 1
  %51 = zext i8 %50 to i16
  %52 = zext i16 %51 to i32
  %53 = shl i32 %52, 0
  %54 = or i32 %46, %53
  %55 = trunc i32 %54 to i16
  %56 = zext i16 %55 to i32
  store i32 %56, ptr %12, align 4
  %57 = load ptr, ptr %11, align 8
  %58 = getelementptr inbounds i8, ptr %57, i64 2
  store ptr %58, ptr %11, align 8
  %59 = load ptr, ptr %11, align 8
  %60 = getelementptr inbounds i8, ptr %59, i64 -2
  %61 = getelementptr inbounds i8, ptr %60, i64 0
  %62 = load i8, ptr %61, align 1
  %63 = zext i8 %62 to i16
  %64 = zext i16 %63 to i32
  %65 = shl i32 %64, 8
  %66 = load ptr, ptr %11, align 8
  %67 = getelementptr inbounds i8, ptr %66, i64 -2
  %68 = getelementptr inbounds i8, ptr %67, i64 1
  %69 = load i8, ptr %68, align 1
  %70 = zext i8 %69 to i16
  %71 = zext i16 %70 to i32
  %72 = shl i32 %71, 0
  %73 = or i32 %65, %72
  %74 = trunc i32 %73 to i16
  %75 = zext i16 %74 to i32
  store i32 %75, ptr %13, align 4
  %76 = load ptr, ptr %11, align 8
  %77 = getelementptr inbounds i8, ptr %76, i64 2
  store ptr %77, ptr %11, align 8
  %78 = load ptr, ptr %11, align 8
  %79 = getelementptr inbounds i8, ptr %78, i64 -2
  %80 = getelementptr inbounds i8, ptr %79, i64 0
  %81 = load i8, ptr %80, align 1
  %82 = zext i8 %81 to i16
  %83 = zext i16 %82 to i32
  %84 = shl i32 %83, 8
  %85 = load ptr, ptr %11, align 8
  %86 = getelementptr inbounds i8, ptr %85, i64 -2
  %87 = getelementptr inbounds i8, ptr %86, i64 1
  %88 = load i8, ptr %87, align 1
  %89 = zext i8 %88 to i16
  %90 = zext i16 %89 to i32
  %91 = shl i32 %90, 0
  %92 = or i32 %84, %91
  %93 = trunc i32 %92 to i16
  %94 = sext i16 %93 to i32
  store i32 %94, ptr %14, align 4
  %95 = load ptr, ptr %11, align 8
  %96 = getelementptr inbounds i8, ptr %95, i64 0
  %97 = load i8, ptr %96, align 1
  %98 = zext i8 %97 to i16
  %99 = zext i16 %98 to i32
  %100 = shl i32 %99, 8
  %101 = load ptr, ptr %11, align 8
  %102 = getelementptr inbounds i8, ptr %101, i64 1
  %103 = load i8, ptr %102, align 1
  %104 = zext i8 %103 to i16
  %105 = zext i16 %104 to i32
  %106 = shl i32 %105, 0
  %107 = or i32 %100, %106
  %108 = trunc i32 %107 to i16
  %109 = zext i16 %108 to i32
  store i32 %109, ptr %15, align 4
  %110 = load i32, ptr %9, align 4
  %111 = and i32 %110, 255
  store i32 %111, ptr %16, align 4
  %112 = load i32, ptr %16, align 4
  %113 = load i32, ptr %12, align 4
  %114 = load i32, ptr %13, align 4
  %115 = add i32 %113, %114
  %116 = icmp uge i32 %112, %115
  br i1 %116, label %117, label %121

117:                                              ; preds = %36
  %118 = load i32, ptr %9, align 4
  %119 = icmp ule i32 %118, 255
  br i1 %119, label %120, label %121

120:                                              ; preds = %117
  store i32 256, ptr %9, align 4
  br label %26, !llvm.loop !7

121:                                              ; preds = %117, %36
  %122 = load i32, ptr %15, align 4
  %123 = icmp eq i32 %122, 0
  br i1 %123, label %124, label %129

124:                                              ; preds = %121
  %125 = load i32, ptr %9, align 4
  %126 = icmp eq i32 %125, 256
  br i1 %126, label %127, label %128

127:                                              ; preds = %124
  br label %213

128:                                              ; preds = %124
  br label %201

129:                                              ; preds = %121
  %130 = load i32, ptr %16, align 4
  %131 = load i32, ptr %12, align 4
  %132 = icmp ult i32 %130, %131
  br i1 %132, label %133, label %135

133:                                              ; preds = %129
  %134 = load i32, ptr %12, align 4
  store i32 %134, ptr %16, align 4
  store i32 0, ptr %17, align 4
  br label %139

135:                                              ; preds = %129
  %136 = load i32, ptr %16, align 4
  %137 = load i32, ptr %12, align 4
  %138 = sub i32 %136, %137
  store i32 %138, ptr %17, align 4
  br label %139

139:                                              ; preds = %135, %133
  %140 = load i32, ptr %15, align 4
  %141 = load i32, ptr %17, align 4
  %142 = mul i32 %141, 2
  %143 = add i32 %140, %142
  %144 = load ptr, ptr %11, align 8
  %145 = zext i32 %143 to i64
  %146 = getelementptr inbounds i8, ptr %144, i64 %145
  store ptr %146, ptr %11, align 8
  %147 = load i32, ptr %9, align 4
  %148 = and i32 %147, -256
  %149 = load i32, ptr %16, align 4
  %150 = add i32 %148, %149
  store i32 %150, ptr %9, align 4
  br label %151

151:                                              ; preds = %188, %139
  %152 = load i32, ptr %17, align 4
  %153 = load i32, ptr %13, align 4
  %154 = icmp ult i32 %152, %153
  br i1 %154, label %155, label %193

155:                                              ; preds = %151
  %156 = load ptr, ptr %11, align 8
  %157 = getelementptr inbounds i8, ptr %156, i64 2
  store ptr %157, ptr %11, align 8
  %158 = load ptr, ptr %11, align 8
  %159 = getelementptr inbounds i8, ptr %158, i64 -2
  %160 = getelementptr inbounds i8, ptr %159, i64 0
  %161 = load i8, ptr %160, align 1
  %162 = zext i8 %161 to i16
  %163 = zext i16 %162 to i32
  %164 = shl i32 %163, 8
  %165 = load ptr, ptr %11, align 8
  %166 = getelementptr inbounds i8, ptr %165, i64 -2
  %167 = getelementptr inbounds i8, ptr %166, i64 1
  %168 = load i8, ptr %167, align 1
  %169 = zext i8 %168 to i16
  %170 = zext i16 %169 to i32
  %171 = shl i32 %170, 0
  %172 = or i32 %164, %171
  %173 = trunc i32 %172 to i16
  %174 = zext i16 %173 to i32
  store i32 %174, ptr %18, align 4
  %175 = load i32, ptr %18, align 4
  %176 = icmp ne i32 %175, 0
  br i1 %176, label %177, label %187

177:                                              ; preds = %155
  %178 = load i32, ptr %18, align 4
  %179 = load i32, ptr %14, align 4
  %180 = add nsw i32 %178, %179
  %181 = and i32 %180, 65535
  store i32 %181, ptr %7, align 4
  %182 = load i32, ptr %7, align 4
  %183 = icmp ne i32 %182, 0
  br i1 %183, label %184, label %186

184:                                              ; preds = %177
  %185 = load i32, ptr %9, align 4
  store i32 %185, ptr %8, align 4
  br label %213

186:                                              ; preds = %177
  br label %187

187:                                              ; preds = %186, %155
  br label %188

188:                                              ; preds = %187
  %189 = load i32, ptr %17, align 4
  %190 = add i32 %189, 1
  store i32 %190, ptr %17, align 4
  %191 = load i32, ptr %9, align 4
  %192 = add i32 %191, 1
  store i32 %192, ptr %9, align 4
  br label %151, !llvm.loop !8

193:                                              ; preds = %151
  %194 = load i32, ptr %13, align 4
  %195 = icmp ne i32 %194, 0
  br i1 %195, label %196, label %199

196:                                              ; preds = %193
  %197 = load i32, ptr %9, align 4
  %198 = add i32 %197, -1
  store i32 %198, ptr %9, align 4
  br label %199

199:                                              ; preds = %196, %193
  br label %200

200:                                              ; preds = %199, %30
  br label %201

201:                                              ; preds = %200, %128
  %202 = load i32, ptr %9, align 4
  %203 = icmp ule i32 %202, 255
  br i1 %203, label %204, label %207

204:                                              ; preds = %201
  %205 = load i32, ptr %9, align 4
  %206 = add i32 %205, 1
  store i32 %206, ptr %9, align 4
  br label %211

207:                                              ; preds = %201
  %208 = load i32, ptr %9, align 4
  %209 = and i32 %208, -256
  %210 = add i32 %209, 256
  store i32 %210, ptr %9, align 4
  br label %211

211:                                              ; preds = %207, %204
  br label %26, !llvm.loop !7

212:                                              ; preds = %26
  br label %213

213:                                              ; preds = %212, %184, %127
  %214 = load i32, ptr %8, align 4
  %215 = load ptr, ptr %4, align 8
  store i32 %214, ptr %215, align 4
  %216 = load i32, ptr %7, align 4
  ret i32 %216
}