; Function Attrs: nofree norecurse nosync nounwind memory(read, argmem: readwrite, inaccessiblemem: none) uwtable
define internal range(i32 0, 65536) i32 @tt_cmap2_char_next(ptr nocapture noundef readonly %0, ptr nocapture noundef %1) #3 {
  %3 = load i32, ptr %1, align 4
  %4 = add i32 %3, 1
  %5 = icmp ult i32 %4, 65536
  br i1 %5, label %.lr.ph86, label %.loopexit

.lr.ph86:                                         ; preds = %2
  %6 = getelementptr inbounds i8, ptr %0, i64 24
  %7 = load ptr, ptr %6, align 8
  %8 = getelementptr inbounds i8, ptr %7, i64 6
  %9 = getelementptr inbounds i8, ptr %7, i64 518
  br label %10

10:                                               ; preds = %.lr.ph86, %.backedge
  %.06084 = phi i32 [ %4, %.lr.ph86 ], [ %.060.be, %.backedge ]
  %11 = icmp ult i32 %.06084, 256
  br i1 %11, label %12, label %23

12:                                               ; preds = %10
  %13 = shl nuw nsw i32 %.06084, 1
  %14 = zext nneg i32 %13 to i64
  %15 = getelementptr inbounds i8, ptr %8, i64 %14
  %16 = load i8, ptr %15, align 1
  %17 = zext i8 %16 to i32
  %18 = shl nuw nsw i32 %17, 8
  %19 = getelementptr inbounds i8, ptr %15, i64 1
  %20 = load i8, ptr %19, align 1
  %21 = zext i8 %20 to i32
  %22 = or disjoint i32 %18, %21
  %.not.i = icmp eq i32 %22, 0
  br i1 %.not.i, label %tt_cmap2_get_subheader.exit, label %tt_cmap2_get_subheader.exit.thread

23:                                               ; preds = %10
  %24 = lshr i32 %.06084, 7
  %25 = and i32 %24, 510
  %26 = zext nneg i32 %25 to i64
  %27 = getelementptr inbounds i8, ptr %8, i64 %26
  %28 = load i8, ptr %27, align 1
  %29 = zext i8 %28 to i64
  %30 = shl nuw nsw i64 %29, 8
  %31 = getelementptr inbounds i8, ptr %27, i64 1
  %32 = load i8, ptr %31, align 1
  %33 = and i8 %32, -8
  %.masked.i = zext i8 %33 to i64
  %34 = or disjoint i64 %30, %.masked.i
  %35 = getelementptr inbounds i8, ptr %9, i64 %34
  %36 = icmp eq i64 %34, 0
  br i1 %36, label %tt_cmap2_get_subheader.exit.thread, label %tt_cmap2_get_subheader.exit

tt_cmap2_get_subheader.exit:                      ; preds = %23, %12
  %.0.i = phi ptr [ %9, %12 ], [ %35, %23 ]
  %37 = load i8, ptr %.0.i, align 1
  %38 = zext i8 %37 to i32
  %39 = shl nuw nsw i32 %38, 8
  %40 = getelementptr inbounds i8, ptr %.0.i, i64 1
  %41 = load i8, ptr %40, align 1
  %42 = zext i8 %41 to i32
  %43 = or disjoint i32 %39, %42
  %44 = getelementptr inbounds i8, ptr %.0.i, i64 2
  %45 = load i8, ptr %44, align 1
  %46 = zext i8 %45 to i32
  %47 = shl nuw nsw i32 %46, 8
  %48 = getelementptr inbounds i8, ptr %.0.i, i64 3
  %49 = load i8, ptr %48, align 1
  %50 = zext i8 %49 to i32
  %51 = or disjoint i32 %47, %50
  %52 = getelementptr inbounds i8, ptr %.0.i, i64 6
  %53 = getelementptr inbounds i8, ptr %.0.i, i64 4
  %54 = load i8, ptr %53, align 1
  %55 = zext i8 %54 to i32
  %56 = shl nuw nsw i32 %55, 8
  %57 = getelementptr inbounds i8, ptr %.0.i, i64 5
  %58 = load i8, ptr %57, align 1
  %59 = zext i8 %58 to i32
  %60 = or disjoint i32 %56, %59
  %61 = load i8, ptr %52, align 1
  %62 = zext i8 %61 to i32
  %63 = shl nuw nsw i32 %62, 8
  %64 = getelementptr inbounds i8, ptr %.0.i, i64 7
  %65 = load i8, ptr %64, align 1
  %66 = zext i8 %65 to i32
  %67 = or disjoint i32 %63, %66
  %68 = and i32 %.06084, 255
  %69 = add nuw nsw i32 %51, %43
  %70 = icmp uge i32 %68, %69
  %or.cond = and i1 %11, %70
  br i1 %or.cond, label %.backedge, label %71

71:                                               ; preds = %tt_cmap2_get_subheader.exit
  %72 = icmp eq i32 %67, 0
  br i1 %72, label %73, label %75

73:                                               ; preds = %71
  %74 = icmp eq i32 %.06084, 256
  br i1 %74, label %.loopexit, label %tt_cmap2_get_subheader.exit.thread

75:                                               ; preds = %71
  %.058 = tail call i32 @llvm.umax.i32(i32 %68, i32 %43)
  %.056 = tail call i32 @llvm.usub.sat.i32(i32 %68, i32 %43)
  %76 = and i32 %.06084, 65280
  %77 = add nuw nsw i32 %.058, %76
  %78 = icmp ult i32 %.056, %51
  br i1 %78, label %.lr.ph.preheader, label %._crit_edge

.lr.ph.preheader:                                 ; preds = %75
  %79 = shl nuw nsw i32 %.056, 1
  %80 = add nuw nsw i32 %67, %79
  %81 = zext nneg i32 %80 to i64
  %82 = getelementptr inbounds i8, ptr %52, i64 %81
  br label %.lr.ph

.lr.ph:                                           ; preds = %.lr.ph.preheader, %94
  %.15783 = phi i32 [ %95, %94 ], [ %.056, %.lr.ph.preheader ]
  %.16182 = phi i32 [ %96, %94 ], [ %77, %.lr.ph.preheader ]
  %.06481 = phi ptr [ %83, %94 ], [ %82, %.lr.ph.preheader ]
  %83 = getelementptr inbounds i8, ptr %.06481, i64 2
  %84 = load i8, ptr %.06481, align 1
  %85 = zext i8 %84 to i32
  %86 = shl nuw nsw i32 %85, 8
  %87 = getelementptr inbounds i8, ptr %.06481, i64 1
  %88 = load i8, ptr %87, align 1
  %89 = zext i8 %88 to i32
  %90 = or disjoint i32 %86, %89
  %.not75 = icmp eq i32 %90, 0
  br i1 %.not75, label %94, label %91

91:                                               ; preds = %.lr.ph
  %92 = add nuw nsw i32 %90, %60
  %93 = and i32 %92, 65535
  %.not76 = icmp eq i32 %93, 0
  br i1 %.not76, label %94, label %.loopexit

94:                                               ; preds = %.lr.ph, %91
  %95 = add nuw nsw i32 %.15783, 1
  %96 = add nuw nsw i32 %.16182, 1
  %97 = icmp ult i32 %95, %51
  br i1 %97, label %.lr.ph, label %._crit_edge, !llvm.loop !7

._crit_edge:                                      ; preds = %94, %75
  %.161.lcssa = phi i32 [ %77, %75 ], [ %96, %94 ]
  %.not74 = icmp ne i32 %51, 0
  %98 = sext i1 %.not74 to i32
  %spec.select = add i32 %.161.lcssa, %98
  br label %tt_cmap2_get_subheader.exit.thread

tt_cmap2_get_subheader.exit.thread:               ; preds = %23, %12, %._crit_edge, %73
  %.262 = phi i32 [ %.06084, %73 ], [ %spec.select, %._crit_edge ], [ %.06084, %12 ], [ %.06084, %23 ]
  %99 = icmp ult i32 %.262, 256
  %100 = add nuw nsw i32 %.262, 1
  %101 = and i32 %.262, -256
  %102 = add i32 %101, 256
  %.363 = select i1 %99, i32 %100, i32 %102
  br label %.backedge

.backedge:                                        ; preds = %tt_cmap2_get_subheader.exit.thread, %tt_cmap2_get_subheader.exit
  %.060.be = phi i32 [ %.363, %tt_cmap2_get_subheader.exit.thread ], [ 256, %tt_cmap2_get_subheader.exit ]
  %103 = icmp ult i32 %.060.be, 65536
  br i1 %103, label %10, label %.loopexit, !llvm.loop !8

.loopexit:                                        ; preds = %73, %.backedge, %91, %2
  %.059 = phi i32 [ 0, %2 ], [ %.16182, %91 ], [ 0, %.backedge ], [ 0, %73 ]
  %.4 = phi i32 [ 0, %2 ], [ %93, %91 ], [ 0, %.backedge ], [ 0, %73 ]
  store i32 %.059, ptr %1, align 4
  ret i32 %.4
}